target datalayout = "e-m:e-p270:32:32-p271:32:32-p272:64:64-i64:64-i128:128-f80:128-n8:16:32:64-S128"
target triple = "x86_64-pc-linux-gnu"

%"class.folly::symbolizer::ElfFile" = type { [512 x i8], i32, ptr, i64, %"struct.folly::symbolizer::ElfFileId", i64 }
%"struct.folly::symbolizer::ElfFileId" = type { i64, i64, i64, i64 }
%"struct.folly::symbolizer::ElfFile::OpenResult" = type { i32, ptr }
%"struct.std::array" = type { [5 x i8] }
%struct.Elf64_Ehdr = type { [16 x i8], i16, i16, i32, i64, i64, i64, i32, i16, i16, i16, i16, i16, i16 }
%struct.Elf64_Phdr = type { i32, i32, i64, i64, i64, i64, i64, i64 }

@.str.12 = private unnamed_addr constant [28 x i8] c"not an ELF file (too short)\00", align 1
@.str.13 = private unnamed_addr constant [41 x i8] c"unable to read ELF file for magic number\00", align 1
@.str.14 = private unnamed_addr constant [5 x i8] c"\7FELF\00", align 1
@.str.15 = private unnamed_addr constant [18 x i8] c"invalid ELF magic\00", align 1
@.str.16 = private unnamed_addr constant [140 x i8] c"The last bit of the mmaped memory is no longer valid. This may be caused by the original file being resized, deleted or otherwise modified.\00", align 1
@.str.17 = private unnamed_addr constant [63 x i8] c"unable to reset file descriptor after reading ELF magic number\00", align 1
@.str.18 = private unnamed_addr constant [18 x i8] c"invalid ELF class\00", align 1
@.str.19 = private unnamed_addr constant [21 x i8] c"invalid ELF encoding\00", align 1
@.str.20 = private unnamed_addr constant [20 x i8] c"invalid ELF version\00", align 1
@.str.21 = private unnamed_addr constant [22 x i8] c"invalid ELF file type\00", align 1
@.str.22 = private unnamed_addr constant [19 x i8] c"no program header!\00", align 1
@.str.23 = private unnamed_addr constant [34 x i8] c"invalid program header entry size\00", align 1
@.str.24 = private unnamed_addr constant [34 x i8] c"invalid section header entry size\00", align 1
@.str.25 = private unnamed_addr constant [28 x i8] c"could not find base address\00", align 1

; Function Attrs: mustprogress nounwind uwtable
define linkonce_odr noundef ptr @_ZNSt14__array_traitsIcLm5EE6_S_ptrERA5_Kc(ptr noundef nonnull align 1 dereferenceable(5) %0) #0 comdat align 2 {
  %2 = alloca ptr, align 8
  store ptr %0, ptr %2, align 8, !tbaa !22
  %3 = load ptr, ptr %2, align 8, !tbaa !22
  %4 = getelementptr inbounds [5 x i8], ptr %3, i64 0, i64 0
  ret ptr %4
}

; Function Attrs: mustprogress nounwind willreturn memory(none) uwtable
define linkonce_odr noundef ptr @_ZNSt5arrayIcLm5EE4dataEv(ptr noundef nonnull align 1 dereferenceable(5) %0) #23 comdat align 2 {
  %2 = alloca ptr, align 8
  store ptr %0, ptr %2, align 8, !tbaa !137
  %3 = load ptr, ptr %2, align 8
  %4 = getelementptr inbounds nuw %"struct.std::array", ptr %3, i32 0, i32 0
  %5 = call noundef ptr @_ZNSt14__array_traitsIcLm5EE6_S_ptrERA5_Kc(ptr noundef nonnull align 1 dereferenceable(5) %4) #24
  ret ptr %5
}

; Function Attrs: mustprogress nounwind uwtable
define { i32, ptr } @_ZN5folly10symbolizer7ElfFile4initEv(ptr noundef nonnull align 8 dereferenceable(576) %0) #0 align 2 personality ptr @__gxx_personality_v0 {
  %2 = alloca %"struct.folly::symbolizer::ElfFile::OpenResult", align 8
  %3 = alloca ptr, align 8
  %4 = alloca %"struct.std::array", align 1
  %5 = alloca i32, align 4
  %6 = alloca i8, align 1
  %7 = alloca ptr, align 8
  %8 = alloca ptr, align 8
  %9 = alloca ptr, align 8
  store ptr %0, ptr %3, align 8, !tbaa !7
  %10 = load ptr, ptr %3, align 8
  %11 = getelementptr inbounds nuw %"class.folly::symbolizer::ElfFile", ptr %10, i32 0, i32 3
  %12 = load i64, ptr %11, align 8, !tbaa !20
  %13 = icmp ult i64 %12, 4
  br i1 %13, label %14, label %17

14:                                               ; preds = %1
  %15 = getelementptr inbounds nuw %"struct.folly::symbolizer::ElfFile::OpenResult", ptr %2, i32 0, i32 0
  store i32 -2, ptr %15, align 8, !tbaa !31
  %16 = getelementptr inbounds nuw %"struct.folly::symbolizer::ElfFile::OpenResult", ptr %2, i32 0, i32 1
  store ptr @.str.12, ptr %16, align 8, !tbaa !27
  br label %198

17:                                               ; preds = %1
  call void @llvm.lifetime.start.p0(i64 5, ptr %4) #24
  call void @llvm.memset.p0.i64(ptr align 1 %4, i8 0, i64 5, i1 false)
  %18 = getelementptr inbounds nuw %"class.folly::symbolizer::ElfFile", ptr %10, i32 0, i32 1
  %19 = load i32, ptr %18, align 8, !tbaa !13
  %20 = call i64 @lseek(i32 noundef %19, i64 noundef 0, i32 noundef 0) #24
  %21 = icmp ne i64 %20, 0
  br i1 %21, label %29, label %22

22:                                               ; preds = %17
  %23 = getelementptr inbounds nuw %"class.folly::symbolizer::ElfFile", ptr %10, i32 0, i32 1
  %24 = load i32, ptr %23, align 8, !tbaa !13
  %25 = call noundef ptr @_ZNSt5arrayIcLm5EE4dataEv(ptr noundef nonnull align 1 dereferenceable(5) %4) #27
  %26 = invoke i64 @read(i32 noundef %24, ptr noundef %25, i64 noundef 4)
          to label %27 unwind label %200

27:                                               ; preds = %22
  %28 = icmp ne i64 %26, 4
  br i1 %28, label %29, label %32

29:                                               ; preds = %27, %17
  %30 = getelementptr inbounds nuw %"struct.folly::symbolizer::ElfFile::OpenResult", ptr %2, i32 0, i32 0
  store i32 -2, ptr %30, align 8, !tbaa !31
  %31 = getelementptr inbounds nuw %"struct.folly::symbolizer::ElfFile::OpenResult", ptr %2, i32 0, i32 1
  store ptr @.str.13, ptr %31, align 8, !tbaa !27
  store i32 1, ptr %5, align 4
  br label %197

32:                                               ; preds = %27
  %33 = call noundef ptr @_ZNSt5arrayIcLm5EE4dataEv(ptr noundef nonnull align 1 dereferenceable(5) %4) #27
  %34 = call i32 @strncmp(ptr noundef %33, ptr noundef @.str.14, i64 noundef 5) #31
  %35 = icmp ne i32 %34, 0
  br i1 %35, label %36, label %39

36:                                               ; preds = %32
  %37 = getelementptr inbounds nuw %"struct.folly::symbolizer::ElfFile::OpenResult", ptr %2, i32 0, i32 0
  store i32 -2, ptr %37, align 8, !tbaa !31
  %38 = getelementptr inbounds nuw %"struct.folly::symbolizer::ElfFile::OpenResult", ptr %2, i32 0, i32 1
  store ptr @.str.15, ptr %38, align 8, !tbaa !27
  store i32 1, ptr %5, align 4
  br label %197

39:                                               ; preds = %32
  call void @llvm.lifetime.start.p0(i64 1, ptr %6) #24
  %40 = getelementptr inbounds nuw %"class.folly::symbolizer::ElfFile", ptr %10, i32 0, i32 1
  %41 = load i32, ptr %40, align 8, !tbaa !13
  %42 = getelementptr inbounds nuw %"class.folly::symbolizer::ElfFile", ptr %10, i32 0, i32 3
  %43 = load i64, ptr %42, align 8, !tbaa !20
  %44 = sub i64 %43, 1
  %45 = invoke i64 @pread(i32 noundef %41, ptr noundef %6, i64 noundef 1, i64 noundef %44)
          to label %46 unwind label %200

46:                                               ; preds = %39
  %47 = icmp ne i64 %45, 1
  br i1 %47, label %48, label %52

48:                                               ; preds = %46
  call void @llvm.lifetime.start.p0(i64 8, ptr %7) #24
  store ptr @.str.16, ptr %7, align 8, !tbaa !22
  %49 = getelementptr inbounds nuw %"struct.folly::symbolizer::ElfFile::OpenResult", ptr %2, i32 0, i32 0
  store i32 -2, ptr %49, align 8, !tbaa !31
  %50 = getelementptr inbounds nuw %"struct.folly::symbolizer::ElfFile::OpenResult", ptr %2, i32 0, i32 1
  %51 = load ptr, ptr %7, align 8, !tbaa !22
  store ptr %51, ptr %50, align 8, !tbaa !27
  store i32 1, ptr %5, align 4
  call void @llvm.lifetime.end.p0(i64 8, ptr %7) #24
  br label %196

52:                                               ; preds = %46
  %53 = getelementptr inbounds nuw %"class.folly::symbolizer::ElfFile", ptr %10, i32 0, i32 1
  %54 = load i32, ptr %53, align 8, !tbaa !13
  %55 = call i64 @lseek(i32 noundef %54, i64 noundef 0, i32 noundef 0) #24
  %56 = icmp ne i64 %55, 0
  br i1 %56, label %57, label %60

57:                                               ; preds = %52
  %58 = getelementptr inbounds nuw %"struct.folly::symbolizer::ElfFile::OpenResult", ptr %2, i32 0, i32 0
  store i32 -2, ptr %58, align 8, !tbaa !31
  %59 = getelementptr inbounds nuw %"struct.folly::symbolizer::ElfFile::OpenResult", ptr %2, i32 0, i32 1
  store ptr @.str.17, ptr %59, align 8, !tbaa !27
  store i32 1, ptr %5, align 4
  br label %196

60:                                               ; preds = %52
  call void @llvm.lifetime.start.p0(i64 8, ptr %8) #24
  %61 = call noundef nonnull align 8 dereferenceable(64) ptr @_ZNK5folly10symbolizer7ElfFile9elfHeaderEv(ptr noundef nonnull align 8 dereferenceable(576) %10) #24
  store ptr %61, ptr %8, align 8, !tbaa !51
  %62 = load ptr, ptr %8, align 8, !tbaa !51
  %63 = getelementptr inbounds nuw %struct.Elf64_Ehdr, ptr %62, i32 0, i32 0
  %64 = getelementptr inbounds [16 x i8], ptr %63, i64 0, i64 4
  %65 = load i8, ptr %64, align 4, !tbaa !12
  %66 = zext i8 %65 to i32
  %67 = icmp ne i32 %66, 2
  br i1 %67, label %68, label %71

68:                                               ; preds = %60
  %69 = getelementptr inbounds nuw %"struct.folly::symbolizer::ElfFile::OpenResult", ptr %2, i32 0, i32 0
  store i32 -2, ptr %69, align 8, !tbaa !31
  %70 = getelementptr inbounds nuw %"struct.folly::symbolizer::ElfFile::OpenResult", ptr %2, i32 0, i32 1
  store ptr @.str.18, ptr %70, align 8, !tbaa !27
  store i32 1, ptr %5, align 4
  br label %195

71:                                               ; preds = %60
  %72 = load ptr, ptr %8, align 8, !tbaa !51
  %73 = getelementptr inbounds nuw %struct.Elf64_Ehdr, ptr %72, i32 0, i32 0
  %74 = getelementptr inbounds [16 x i8], ptr %73, i64 0, i64 5
  %75 = load i8, ptr %74, align 1, !tbaa !12
  %76 = zext i8 %75 to i32
  %77 = icmp ne i32 %76, 1
  br i1 %77, label %78, label %81

78:                                               ; preds = %71
  %79 = getelementptr inbounds nuw %"struct.folly::symbolizer::ElfFile::OpenResult", ptr %2, i32 0, i32 0
  store i32 -2, ptr %79, align 8, !tbaa !31
  %80 = getelementptr inbounds nuw %"struct.folly::symbolizer::ElfFile::OpenResult", ptr %2, i32 0, i32 1
  store ptr @.str.19, ptr %80, align 8, !tbaa !27
  store i32 1, ptr %5, align 4
  br label %195

81:                                               ; preds = %71
  %82 = load ptr, ptr %8, align 8, !tbaa !51
  %83 = getelementptr inbounds nuw %struct.Elf64_Ehdr, ptr %82, i32 0, i32 0
  %84 = getelementptr inbounds [16 x i8], ptr %83, i64 0, i64 6
  %85 = load i8, ptr %84, align 2, !tbaa !12
  %86 = zext i8 %85 to i32
  %87 = icmp ne i32 %86, 1
  br i1 %87, label %93, label %88

88:                                               ; preds = %81
  %89 = load ptr, ptr %8, align 8, !tbaa !51
  %90 = getelementptr inbounds nuw %struct.Elf64_Ehdr, ptr %89, i32 0, i32 3
  %91 = load i32, ptr %90, align 4, !tbaa !111
  %92 = icmp ne i32 %91, 1
  br i1 %92, label %93, label %96

93:                                               ; preds = %88, %81
  %94 = getelementptr inbounds nuw %"struct.folly::symbolizer::ElfFile::OpenResult", ptr %2, i32 0, i32 0
  store i32 -2, ptr %94, align 8, !tbaa !31
  %95 = getelementptr inbounds nuw %"struct.folly::symbolizer::ElfFile::OpenResult", ptr %2, i32 0, i32 1
  store ptr @.str.20, ptr %95, align 8, !tbaa !27
  store i32 1, ptr %5, align 4
  br label %195

96:                                               ; preds = %88
  %97 = load ptr, ptr %8, align 8, !tbaa !51
  %98 = getelementptr inbounds nuw %struct.Elf64_Ehdr, ptr %97, i32 0, i32 1
  %99 = load i16, ptr %98, align 8, !tbaa !114
  %100 = zext i16 %99 to i32
  %101 = icmp ne i32 %100, 1
  br i1 %101, label %102, label %123

102:                                              ; preds = %96
  %103 = load ptr, ptr %8, align 8, !tbaa !51
  %104 = getelementptr inbounds nuw %struct.Elf64_Ehdr, ptr %103, i32 0, i32 1
  %105 = load i16, ptr %104, align 8, !tbaa !114
  %106 = zext i16 %105 to i32
  %107 = icmp ne i32 %106, 2
  br i1 %107, label %108, label %123

108:                                              ; preds = %102
  %109 = load ptr, ptr %8, align 8, !tbaa !51
  %110 = getelementptr inbounds nuw %struct.Elf64_Ehdr, ptr %109, i32 0, i32 1
  %111 = load i16, ptr %110, align 8, !tbaa !114
  %112 = zext i16 %111 to i32
  %113 = icmp ne i32 %112, 3
  br i1 %113, label %114, label %123

114:                                              ; preds = %108
  %115 = load ptr, ptr %8, align 8, !tbaa !51
  %116 = getelementptr inbounds nuw %struct.Elf64_Ehdr, ptr %115, i32 0, i32 1
  %117 = load i16, ptr %116, align 8, !tbaa !114
  %118 = zext i16 %117 to i32
  %119 = icmp ne i32 %118, 4
  br i1 %119, label %120, label %123

120:                                              ; preds = %114
  %121 = getelementptr inbounds nuw %"struct.folly::symbolizer::ElfFile::OpenResult", ptr %2, i32 0, i32 0
  store i32 -2, ptr %121, align 8, !tbaa !31
  %122 = getelementptr inbounds nuw %"struct.folly::symbolizer::ElfFile::OpenResult", ptr %2, i32 0, i32 1
  store ptr @.str.21, ptr %122, align 8, !tbaa !27
  store i32 1, ptr %5, align 4
  br label %195

123:                                              ; preds = %114, %108, %102, %96
  %124 = load ptr, ptr %8, align 8, !tbaa !51
  %125 = getelementptr inbounds nuw %struct.Elf64_Ehdr, ptr %124, i32 0, i32 1
  %126 = load i16, ptr %125, align 8, !tbaa !114
  %127 = zext i16 %126 to i32
  %128 = icmp ne i32 %127, 1
  br i1 %128, label %129, label %148

129:                                              ; preds = %123
  %130 = load ptr, ptr %8, align 8, !tbaa !51
  %131 = getelementptr inbounds nuw %struct.Elf64_Ehdr, ptr %130, i32 0, i32 10
  %132 = load i16, ptr %131, align 8, !tbaa !115
  %133 = zext i16 %132 to i32
  %134 = icmp eq i32 %133, 0
  br i1 %134, label %135, label %138

135:                                              ; preds = %129
  %136 = getelementptr inbounds nuw %"struct.folly::symbolizer::ElfFile::OpenResult", ptr %2, i32 0, i32 0
  store i32 -2, ptr %136, align 8, !tbaa !31
  %137 = getelementptr inbounds nuw %"struct.folly::symbolizer::ElfFile::OpenResult", ptr %2, i32 0, i32 1
  store ptr @.str.22, ptr %137, align 8, !tbaa !27
  store i32 1, ptr %5, align 4
  br label %195

138:                                              ; preds = %129
  %139 = load ptr, ptr %8, align 8, !tbaa !51
  %140 = getelementptr inbounds nuw %struct.Elf64_Ehdr, ptr %139, i32 0, i32 9
  %141 = load i16, ptr %140, align 2, !tbaa !116
  %142 = zext i16 %141 to i64
  %143 = icmp ne i64 %142, 56
  br i1 %143, label %144, label %147

144:                                              ; preds = %138
  %145 = getelementptr inbounds nuw %"struct.folly::symbolizer::ElfFile::OpenResult", ptr %2, i32 0, i32 0
  store i32 -2, ptr %145, align 8, !tbaa !31
  %146 = getelementptr inbounds nuw %"struct.folly::symbolizer::ElfFile::OpenResult", ptr %2, i32 0, i32 1
  store ptr @.str.23, ptr %146, align 8, !tbaa !27
  store i32 1, ptr %5, align 4
  br label %195

147:                                              ; preds = %138
  br label %148

148:                                              ; preds = %147, %123
  %149 = load ptr, ptr %8, align 8, !tbaa !51
  %150 = getelementptr inbounds nuw %struct.Elf64_Ehdr, ptr %149, i32 0, i32 11
  %151 = load i16, ptr %150, align 2, !tbaa !117
  %152 = zext i16 %151 to i64
  %153 = icmp ne i64 %152, 64
  br i1 %153, label %154, label %170

154:                                              ; preds = %148
  %155 = load ptr, ptr %8, align 8, !tbaa !51
  %156 = getelementptr inbounds nuw %struct.Elf64_Ehdr, ptr %155, i32 0, i32 11
  %157 = load i16, ptr %156, align 2, !tbaa !117
  %158 = zext i16 %157 to i32
  %159 = icmp ne i32 %158, 0
  br i1 %159, label %166, label %160

160:                                              ; preds = %154
  %161 = load ptr, ptr %8, align 8, !tbaa !51
  %162 = getelementptr inbounds nuw %struct.Elf64_Ehdr, ptr %161, i32 0, i32 1
  %163 = load i16, ptr %162, align 8, !tbaa !114
  %164 = zext i16 %163 to i32
  %165 = icmp ne i32 %164, 4
  br i1 %165, label %166, label %169

166:                                              ; preds = %160, %154
  %167 = getelementptr inbounds nuw %"struct.folly::symbolizer::ElfFile::OpenResult", ptr %2, i32 0, i32 0
  store i32 -2, ptr %167, align 8, !tbaa !31
  %168 = getelementptr inbounds nuw %"struct.folly::symbolizer::ElfFile::OpenResult", ptr %2, i32 0, i32 1
  store ptr @.str.24, ptr %168, align 8, !tbaa !27
  store i32 1, ptr %5, align 4
  br label %195

169:                                              ; preds = %160
  br label %170

170:                                              ; preds = %169, %148
  %171 = load ptr, ptr %8, align 8, !tbaa !51
  %172 = getelementptr inbounds nuw %struct.Elf64_Ehdr, ptr %171, i32 0, i32 1
  %173 = load i16, ptr %172, align 8, !tbaa !114
  %174 = zext i16 %173 to i32
  %175 = icmp ne i32 %174, 1
  br i1 %175, label %176, label %192

176:                                              ; preds = %170
  call void @llvm.lifetime.start.p0(i64 8, ptr %9) #24
  %177 = invoke noundef ptr @"_ZNK5folly10symbolizer7ElfFile21iterateProgramHeadersIZNS1_4initEvE3$_0EEPK10Elf64_PhdrT_"(ptr noundef nonnull align 8 dereferenceable(576) %10)
          to label %178 unwind label %200

178:                                              ; preds = %176
  store ptr %177, ptr %9, align 8, !tbaa !51
  %179 = load ptr, ptr %9, align 8, !tbaa !51
  %180 = icmp ne ptr %179, null
  br i1 %180, label %184, label %181

181:                                              ; preds = %178
  %182 = getelementptr inbounds nuw %"struct.folly::symbolizer::ElfFile::OpenResult", ptr %2, i32 0, i32 0
  store i32 -2, ptr %182, align 8, !tbaa !31
  %183 = getelementptr inbounds nuw %"struct.folly::symbolizer::ElfFile::OpenResult", ptr %2, i32 0, i32 1
  store ptr @.str.25, ptr %183, align 8, !tbaa !27
  store i32 1, ptr %5, align 4
  br label %189

184:                                              ; preds = %178
  %185 = load ptr, ptr %9, align 8, !tbaa !51
  %186 = getelementptr inbounds nuw %struct.Elf64_Phdr, ptr %185, i32 0, i32 3
  %187 = load i64, ptr %186, align 8, !tbaa !118
  %188 = getelementptr inbounds nuw %"class.folly::symbolizer::ElfFile", ptr %10, i32 0, i32 5
  store i64 %187, ptr %188, align 8, !tbaa !21
  store i32 0, ptr %5, align 4
  br label %189

189:                                              ; preds = %184, %181
  call void @llvm.lifetime.end.p0(i64 8, ptr %9) #24
  %190 = load i32, ptr %5, align 4
  switch i32 %190, label %195 [
    i32 0, label %191
  ]

191:                                              ; preds = %189
  br label %192

192:                                              ; preds = %191, %170
  %193 = getelementptr inbounds nuw %"struct.folly::symbolizer::ElfFile::OpenResult", ptr %2, i32 0, i32 0
  store i32 0, ptr %193, align 8, !tbaa !31
  %194 = getelementptr inbounds nuw %"struct.folly::symbolizer::ElfFile::OpenResult", ptr %2, i32 0, i32 1
  store ptr null, ptr %194, align 8, !tbaa !27
  store i32 1, ptr %5, align 4
  br label %195

195:                                              ; preds = %192, %189, %166, %144, %135, %120, %93, %78, %68
  call void @llvm.lifetime.end.p0(i64 8, ptr %8) #24
  br label %196

196:                                              ; preds = %195, %57, %48
  call void @llvm.lifetime.end.p0(i64 1, ptr %6) #24
  br label %197

197:                                              ; preds = %196, %36, %29
  call void @llvm.lifetime.end.p0(i64 5, ptr %4) #24
  br label %198

198:                                              ; preds = %197, %14
  %199 = load { i32, ptr }, ptr %2, align 8
  ret { i32, ptr } %199

200:                                              ; preds = %176, %39, %22
  %201 = landingpad { ptr, i32 }
          catch ptr null
  %202 = extractvalue { ptr, i32 } %201, 0
  call void @__clang_call_terminate(ptr %202) #26
  unreachable
}