; Function Attrs: mustprogress nounwind uwtable
define { i32, ptr } @_ZN5folly10symbolizer7ElfFile4initEv(ptr noundef nonnull align 8 dereferenceable(576) %0) local_unnamed_addr #4 align 2 personality ptr @__gxx_personality_v0 {
  %2 = alloca %"struct.std::array", align 1
  %3 = alloca i8, align 1
  %4 = getelementptr inbounds nuw i8, ptr %0, i64 528
  %5 = load i64, ptr %4, align 8, !tbaa !39
  %6 = icmp ult i64 %5, 4
  br i1 %6, label %60, label %7

7:                                                ; preds = %1
  call void @llvm.lifetime.start.p0(i64 5, ptr nonnull %2) #27
  call void @llvm.memset.p0.i64(ptr noundef nonnull align 1 dereferenceable(5) %2, i8 0, i64 5, i1 false)
  %8 = getelementptr inbounds nuw i8, ptr %0, i64 512
  %9 = load i32, ptr %8, align 8, !tbaa !10
  %10 = tail call i64 @lseek(i32 noundef %9, i64 noundef 0, i32 noundef 0) #27
  %.not = icmp eq i64 %10, 0
  br i1 %.not, label %11, label %59

11:                                               ; preds = %7
  %12 = load i32, ptr %8, align 8, !tbaa !10
  %13 = invoke i64 @read(i32 noundef %12, ptr noundef nonnull %2, i64 noundef 4)
          to label %14 unwind label %61

14:                                               ; preds = %11
  %.not21 = icmp eq i64 %13, 4
  br i1 %.not21, label %15, label %59

15:                                               ; preds = %14
  %bcmp = call i32 @bcmp(ptr noundef nonnull dereferenceable(5) %2, ptr noundef nonnull dereferenceable(5) @.str.14, i64 5)
  %.not22 = icmp eq i32 %bcmp, 0
  br i1 %.not22, label %16, label %59

16:                                               ; preds = %15
  call void @llvm.lifetime.start.p0(i64 1, ptr nonnull %3) #27
  %17 = load i32, ptr %8, align 8, !tbaa !10
  %18 = load i64, ptr %4, align 8, !tbaa !39
  %19 = add i64 %18, -1
  %20 = invoke i64 @pread(i32 noundef %17, ptr noundef nonnull %3, i64 noundef 1, i64 noundef %19)
          to label %21 unwind label %61

21:                                               ; preds = %16
  %.not23 = icmp eq i64 %20, 1
  br i1 %.not23, label %22, label %.critedge

22:                                               ; preds = %21
  %23 = load i32, ptr %8, align 8, !tbaa !10
  %24 = tail call i64 @lseek(i32 noundef %23, i64 noundef 0, i32 noundef 0) #27
  %.not24 = icmp eq i64 %24, 0
  br i1 %.not24, label %25, label %.critedge

25:                                               ; preds = %22
  %26 = tail call noundef nonnull align 8 dereferenceable(64) ptr @_ZNK5folly10symbolizer7ElfFile9elfHeaderEv(ptr noundef nonnull align 8 dereferenceable(576) %0) #27
  %27 = getelementptr inbounds nuw i8, ptr %26, i64 4
  %28 = load i8, ptr %27, align 4, !tbaa !7
  %.not25 = icmp eq i8 %28, 2
  br i1 %.not25, label %29, label %.critedge

29:                                               ; preds = %25
  %30 = getelementptr inbounds nuw i8, ptr %26, i64 5
  %31 = load i8, ptr %30, align 1, !tbaa !7
  %.not26 = icmp eq i8 %31, 1
  br i1 %.not26, label %32, label %.critedge

32:                                               ; preds = %29
  %33 = getelementptr inbounds nuw i8, ptr %26, i64 6
  %34 = load i8, ptr %33, align 2, !tbaa !7
  %.not27 = icmp eq i8 %34, 1
  br i1 %.not27, label %35, label %.critedge

35:                                               ; preds = %32
  %36 = getelementptr inbounds nuw i8, ptr %26, i64 20
  %37 = load i32, ptr %36, align 4, !tbaa !65
  %.not28 = icmp eq i32 %37, 1
  br i1 %.not28, label %38, label %.critedge

38:                                               ; preds = %35
  %39 = getelementptr inbounds nuw i8, ptr %26, i64 16
  %40 = load i16, ptr %39, align 8, !tbaa !68
  %.off = add i16 %40, -1
  %switch = icmp ult i16 %.off, 4
  br i1 %switch, label %41, label %.critedge

41:                                               ; preds = %38
  %.not33 = icmp eq i16 %40, 1
  br i1 %.not33, label %49, label %42

42:                                               ; preds = %41
  %43 = getelementptr inbounds nuw i8, ptr %26, i64 56
  %44 = load i16, ptr %43, align 8, !tbaa !69
  %45 = icmp eq i16 %44, 0
  br i1 %45, label %.critedge, label %46

46:                                               ; preds = %42
  %47 = getelementptr inbounds nuw i8, ptr %26, i64 54
  %48 = load i16, ptr %47, align 2, !tbaa !70
  %.not34 = icmp eq i16 %48, 56
  br i1 %.not34, label %49, label %.critedge

49:                                               ; preds = %46, %41
  %50 = getelementptr inbounds nuw i8, ptr %26, i64 58
  %51 = load i16, ptr %50, align 2, !tbaa !71
  switch i16 %51, label %.critedge [
    i16 64, label %53
    i16 0, label %52
  ]

52:                                               ; preds = %49
  %.not37 = icmp eq i16 %40, 4
  br i1 %.not37, label %.thread, label %.critedge

53:                                               ; preds = %49
  br i1 %.not33, label %.critedge, label %.thread

.thread:                                          ; preds = %52, %53
  %54 = tail call fastcc noundef ptr @"_ZNK5folly10symbolizer7ElfFile21iterateProgramHeadersIZNS1_4initEvE3$_0EEPK10Elf64_PhdrT_"(ptr noundef nonnull align 8 dereferenceable(576) %0)
  %.not39.not = icmp eq ptr %54, null
  br i1 %.not39.not, label %.critedge, label %55

55:                                               ; preds = %.thread
  %56 = getelementptr inbounds nuw i8, ptr %54, i64 16
  %57 = load i64, ptr %56, align 8, !tbaa !72
  %58 = getelementptr inbounds nuw i8, ptr %0, i64 568
  store i64 %57, ptr %58, align 8, !tbaa !74
  br label %.critedge

.critedge:                                        ; preds = %53, %55, %38, %25, %29, %35, %32, %42, %46, %49, %52, %.thread, %22, %21
  %.sroa.0.2 = phi i32 [ -2, %21 ], [ -2, %22 ], [ -2, %25 ], [ -2, %29 ], [ -2, %35 ], [ -2, %32 ], [ -2, %38 ], [ -2, %42 ], [ -2, %46 ], [ -2, %49 ], [ -2, %52 ], [ -2, %.thread ], [ 0, %55 ], [ 0, %53 ]
  %.sroa.15.2 = phi ptr [ @.str.16, %21 ], [ @.str.17, %22 ], [ @.str.18, %25 ], [ @.str.19, %29 ], [ @.str.20, %35 ], [ @.str.20, %32 ], [ @.str.21, %38 ], [ @.str.22, %42 ], [ @.str.23, %46 ], [ @.str.24, %49 ], [ @.str.24, %52 ], [ @.str.25, %.thread ], [ null, %55 ], [ null, %53 ]
  call void @llvm.lifetime.end.p0(i64 1, ptr nonnull %3) #27
  br label %59

59:                                               ; preds = %15, %7, %14, %.critedge
  %.sroa.0.1 = phi i32 [ %.sroa.0.2, %.critedge ], [ -2, %14 ], [ -2, %7 ], [ -2, %15 ]
  %.sroa.15.1 = phi ptr [ %.sroa.15.2, %.critedge ], [ @.str.13, %14 ], [ @.str.13, %7 ], [ @.str.15, %15 ]
  call void @llvm.lifetime.end.p0(i64 5, ptr nonnull %2) #27
  br label %60

60:                                               ; preds = %1, %59
  %.sroa.0.0 = phi i32 [ %.sroa.0.1, %59 ], [ -2, %1 ]
  %.sroa.15.0 = phi ptr [ %.sroa.15.1, %59 ], [ @.str.12, %1 ]
  %.fca.0.insert = insertvalue { i32, ptr } poison, i32 %.sroa.0.0, 0
  %.fca.1.insert = insertvalue { i32, ptr } %.fca.0.insert, ptr %.sroa.15.0, 1
  ret { i32, ptr } %.fca.1.insert

61:                                               ; preds = %16, %11
  %62 = landingpad { ptr, i32 }
          catch ptr null
  %63 = extractvalue { ptr, i32 } %62, 0
  tail call void @__clang_call_terminate(ptr %63) #29
  unreachable
}